target datalayout = "e-m:e-p270:32:32-p271:32:32-p272:64:64-i64:64-i128:128-f80:128-n8:16:32:64-S128"
target triple = "x86_64-pc-linux-gnu"

@.str.20 = private unnamed_addr constant [22 x i8] c"unable to access '%s'\00", align 1

; Function Attrs: inlinehint nounwind uwtable
define internal i32 @is_missing_file_error(i32 noundef %0) #8 {
  %2 = alloca i32, align 4
  store i32 %0, ptr %2, align 4, !tbaa !11
  %3 = load i32, ptr %2, align 4, !tbaa !11
  %4 = icmp eq i32 %3, 2
  br i1 %4, label %8, label %5

5:                                                ; preds = %1
  %6 = load i32, ptr %2, align 4, !tbaa !11
  %7 = icmp eq i32 %6, 20
  br label %8

8:                                                ; preds = %5, %1
  %9 = phi i1 [ true, %1 ], [ %7, %5 ]
  %10 = zext i1 %9 to i32
  ret i32 %10
}

; Function Attrs: nounwind uwtable
define internal i32 @access_error_is_ok(i32 noundef %0, i32 noundef %1) #0 {
  %3 = alloca i32, align 4
  %4 = alloca i32, align 4
  store i32 %0, ptr %3, align 4, !tbaa !11
  store i32 %1, ptr %4, align 4, !tbaa !11
  %5 = load i32, ptr %3, align 4, !tbaa !11
  %6 = call i32 @is_missing_file_error(i32 noundef %5)
  %7 = icmp ne i32 %6, 0
  br i1 %7, label %17, label %8

8:                                                ; preds = %2
  %9 = load i32, ptr %4, align 4, !tbaa !11
  %10 = and i32 %9, 1
  %11 = icmp ne i32 %10, 0
  br i1 %11, label %12, label %15

12:                                               ; preds = %8
  %13 = load i32, ptr %3, align 4, !tbaa !11
  %14 = icmp eq i32 %13, 13
  br label %15

15:                                               ; preds = %12, %8
  %16 = phi i1 [ false, %8 ], [ %14, %12 ]
  br label %17

17:                                               ; preds = %15, %2
  %18 = phi i1 [ true, %2 ], [ %16, %15 ]
  %19 = zext i1 %18 to i32
  ret i32 %19
}

; Function Attrs: nounwind uwtable
define dso_local i32 @access_or_die(ptr noundef %0, i32 noundef %1, i32 noundef %2) #0 {
  %4 = alloca ptr, align 8
  %5 = alloca i32, align 4
  %6 = alloca i32, align 4
  %7 = alloca i32, align 4
  store ptr %0, ptr %4, align 8, !tbaa !4
  store i32 %1, ptr %5, align 4, !tbaa !11
  store i32 %2, ptr %6, align 4, !tbaa !11
  call void @llvm.lifetime.start.p0(i64 4, ptr %7) #13
  %8 = load ptr, ptr %4, align 8, !tbaa !4
  %9 = load i32, ptr %5, align 4, !tbaa !11
  %10 = call i32 @access(ptr noundef %8, i32 noundef %9) #13
  store i32 %10, ptr %7, align 4, !tbaa !11
  %11 = load i32, ptr %7, align 4, !tbaa !11
  %12 = icmp ne i32 %11, 0
  br i1 %12, label %13, label %22

13:                                               ; preds = %3
  %14 = call ptr @__errno_location() #19
  %15 = load i32, ptr %14, align 4, !tbaa !11
  %16 = load i32, ptr %6, align 4, !tbaa !11
  %17 = call i32 @access_error_is_ok(i32 noundef %15, i32 noundef %16)
  %18 = icmp ne i32 %17, 0
  br i1 %18, label %22, label %19

19:                                               ; preds = %13
  %20 = call ptr @_(ptr noundef @.str.20)
  %21 = load ptr, ptr %4, align 8, !tbaa !4
  call void (ptr, ...) @die_errno(ptr noundef %20, ptr noundef %21) #14
  unreachable

22:                                               ; preds = %13, %3
  %23 = load i32, ptr %7, align 4, !tbaa !11
  call void @llvm.lifetime.end.p0(i64 4, ptr %7) #13
  ret i32 %23
}