; Function Attrs: nounwind uwtable
define dso_local noundef i32 @access_or_die(ptr noundef %0, i32 noundef %1, i32 noundef %2) local_unnamed_addr #0 {
  %4 = tail call i32 @access(ptr noundef %0, i32 noundef %1) #20
  %.not = icmp eq i32 %4, 0
  br i1 %.not, label %access_error_is_ok.exit.thread, label %5

5:                                                ; preds = %3
  %6 = tail call ptr @__errno_location() #26
  %7 = load i32, ptr %6, align 4, !tbaa !9
  switch i32 %7, label %access_error_is_ok.exit [
    i32 20, label %access_error_is_ok.exit.thread
    i32 2, label %access_error_is_ok.exit.thread
  ]

access_error_is_ok.exit:                          ; preds = %5
  %8 = and i32 %2, 1
  %9 = icmp eq i32 %8, 0
  %10 = icmp ne i32 %7, 13
  %.not9 = or i1 %9, %10
  br i1 %.not9, label %11, label %access_error_is_ok.exit.thread

11:                                               ; preds = %access_error_is_ok.exit
  %12 = tail call fastcc ptr @_(ptr noundef nonnull @.str.20)
  tail call void (ptr, ...) @die_errno(ptr noundef %12, ptr noundef %0) #21
  unreachable

access_error_is_ok.exit.thread:                   ; preds = %5, %5, %access_error_is_ok.exit, %3
  ret i32 %4
}